; ModuleID = '28/1888.c'
source_filename = "28/1888.c"
target datalayout = "e-m:e-p270:32:32-p271:32:32-p272:64:64-i64:64-f80:128-n8:16:32:64-S128"
target triple = "x86_64-pc-linux-gnu"

@.str = private unnamed_addr constant [3 x i8] c"%d\00", align 1
@.str.1 = private unnamed_addr constant [4 x i8] c",%d\00", align 1
@.str.2 = private unnamed_addr constant [2 x i8] c"\0A\00", align 1

; Function Attrs: noinline nounwind uwtable
define dso_local i32 @main() #0 {
  %1 = alloca i32, align 4
  %2 = alloca [3000 x i8], align 16
  %3 = alloca i32, align 4
  %4 = alloca i32, align 4
  %5 = alloca i32, align 4
  %6 = alloca i32, align 4
  store i32 0, i32* %1, align 4
  store i32 0, i32* %6, align 4
  %7 = getelementptr inbounds [3000 x i8], [3000 x i8]* %2, i64 0, i64 0
  %8 = call i32 (i8*, ...) bitcast (i32 (...)* @gets to i32 (i8*, ...)*)(i8* %7)
  store i32 0, i32* %5, align 4
  br label %9

9:                                                ; preds = %16, %0
  %10 = load i32, i32* %5, align 4
  %11 = sext i32 %10 to i64
  %12 = getelementptr inbounds [3000 x i8], [3000 x i8]* %2, i64 0, i64 %11
  %13 = load i8, i8* %12, align 1
  %14 = sext i8 %13 to i32
  %15 = icmp eq i32 %14, 32
  br i1 %15, label %16, label %19

16:                                               ; preds = %9
  %17 = load i32, i32* %5, align 4
  %18 = add nsw i32 %17, 1
  store i32 %18, i32* %5, align 4
  br label %9

19:                                               ; preds = %9
  store i32 0, i32* %3, align 4
  br label %20

20:                                               ; preds = %39, %19
  %21 = load i32, i32* %3, align 4
  %22 = load i32, i32* %5, align 4
  %23 = add nsw i32 %21, %22
  %24 = sext i32 %23 to i64
  %25 = getelementptr inbounds [3000 x i8], [3000 x i8]* %2, i64 0, i64 %24
  %26 = load i8, i8* %25, align 1
  %27 = sext i8 %26 to i32
  %28 = icmp ne i32 %27, 0
  br i1 %28, label %29, label %42

29:                                               ; preds = %20
  %30 = load i32, i32* %3, align 4
  %31 = load i32, i32* %5, align 4
  %32 = add nsw i32 %30, %31
  %33 = sext i32 %32 to i64
  %34 = getelementptr inbounds [3000 x i8], [3000 x i8]* %2, i64 0, i64 %33
  %35 = load i8, i8* %34, align 1
  %36 = load i32, i32* %3, align 4
  %37 = sext i32 %36 to i64
  %38 = getelementptr inbounds [3000 x i8], [3000 x i8]* %2, i64 0, i64 %37
  store i8 %35, i8* %38, align 1
  br label %39

39:                                               ; preds = %29
  %40 = load i32, i32* %3, align 4
  %41 = add nsw i32 %40, 1
  store i32 %41, i32* %3, align 4
  br label %20

42:                                               ; preds = %20
  %43 = load i32, i32* %3, align 4
  %44 = sext i32 %43 to i64
  %45 = getelementptr inbounds [3000 x i8], [3000 x i8]* %2, i64 0, i64 %44
  store i8 0, i8* %45, align 1
  store i32 0, i32* %3, align 4
  store i32 0, i32* %4, align 4
  br label %46

46:                                               ; preds = %94, %42
  %47 = load i32, i32* %3, align 4
  %48 = sext i32 %47 to i64
  %49 = getelementptr inbounds [3000 x i8], [3000 x i8]* %2, i64 0, i64 %48
  %50 = load i8, i8* %49, align 1
  %51 = sext i8 %50 to i32
  %52 = icmp ne i32 %51, 0
  br i1 %52, label %53, label %97

53:                                               ; preds = %46
  %54 = load i32, i32* %3, align 4
  %55 = sext i32 %54 to i64
  %56 = getelementptr inbounds [3000 x i8], [3000 x i8]* %2, i64 0, i64 %55
  %57 = load i8, i8* %56, align 1
  %58 = sext i8 %57 to i32
  %59 = icmp ne i32 %58, 32
  br i1 %59, label %60, label %63

60:                                               ; preds = %53
  %61 = load i32, i32* %6, align 4
  %62 = add nsw i32 %61, 1
  store i32 %62, i32* %6, align 4
  br label %93

63:                                               ; preds = %53
  %64 = load i32, i32* %3, align 4
  %65 = sext i32 %64 to i64
  %66 = getelementptr inbounds [3000 x i8], [3000 x i8]* %2, i64 0, i64 %65
  %67 = load i8, i8* %66, align 1
  %68 = sext i8 %67 to i32
  %69 = icmp eq i32 %68, 32
  br i1 %69, label %70, label %92

70:                                               ; preds = %63
  %71 = load i32, i32* %3, align 4
  %72 = sub nsw i32 %71, 1
  %73 = sext i32 %72 to i64
  %74 = getelementptr inbounds [3000 x i8], [3000 x i8]* %2, i64 0, i64 %73
  %75 = load i8, i8* %74, align 1
  %76 = sext i8 %75 to i32
  %77 = icmp eq i32 %76, 32
  br i1 %77, label %78, label %79

78:                                               ; preds = %70
  br label %94

79:                                               ; preds = %70
  %80 = load i32, i32* %4, align 4
  %81 = icmp eq i32 %80, 0
  br i1 %81, label %82, label %85

82:                                               ; preds = %79
  %83 = load i32, i32* %6, align 4
  %84 = call i32 (i8*, ...) @printf(i8* getelementptr inbounds ([3 x i8], [3 x i8]* @.str, i64 0, i64 0), i32 %83)
  store i32 0, i32* %6, align 4
  br label %88

85:                                               ; preds = %79
  %86 = load i32, i32* %6, align 4
  %87 = call i32 (i8*, ...) @printf(i8* getelementptr inbounds ([4 x i8], [4 x i8]* @.str.1, i64 0, i64 0), i32 %86)
  store i32 0, i32* %6, align 4
  br label %88

88:                                               ; preds = %85, %82
  br label %89

89:                                               ; preds = %88
  %90 = load i32, i32* %4, align 4
  %91 = add nsw i32 %90, 1
  store i32 %91, i32* %4, align 4
  br label %92

92:                                               ; preds = %89, %63
  br label %93

93:                                               ; preds = %92, %60
  br label %94

94:                                               ; preds = %93, %78
  %95 = load i32, i32* %3, align 4
  %96 = add nsw i32 %95, 1
  store i32 %96, i32* %3, align 4
  br label %46

97:                                               ; preds = %46
  %98 = load i32, i32* %3, align 4
  %99 = sub nsw i32 %98, 1
  %100 = sext i32 %99 to i64
  %101 = getelementptr inbounds [3000 x i8], [3000 x i8]* %2, i64 0, i64 %100
  %102 = load i8, i8* %101, align 1
  %103 = sext i8 %102 to i32
  %104 = icmp ne i32 %103, 32
  br i1 %104, label %105, label %111

105:                                              ; preds = %97
  %106 = load i32, i32* %4, align 4
  %107 = icmp ne i32 %106, 0
  br i1 %107, label %108, label %111

108:                                              ; preds = %105
  %109 = load i32, i32* %6, align 4
  %110 = call i32 (i8*, ...) @printf(i8* getelementptr inbounds ([4 x i8], [4 x i8]* @.str.1, i64 0, i64 0), i32 %109)
  br label %126

111:                                              ; preds = %105, %97
  %112 = load i32, i32* %3, align 4
  %113 = sub nsw i32 %112, 1
  %114 = sext i32 %113 to i64
  %115 = getelementptr inbounds [3000 x i8], [3000 x i8]* %2, i64 0, i64 %114
  %116 = load i8, i8* %115, align 1
  %117 = sext i8 %116 to i32
  %118 = icmp ne i32 %117, 32
  br i1 %118, label %119, label %125

119:                                              ; preds = %111
  %120 = load i32, i32* %4, align 4
  %121 = icmp eq i32 %120, 0
  br i1 %121, label %122, label %125

122:                                              ; preds = %119
  %123 = load i32, i32* %6, align 4
  %124 = call i32 (i8*, ...) @printf(i8* getelementptr inbounds ([3 x i8], [3 x i8]* @.str, i64 0, i64 0), i32 %123)
  br label %125

125:                                              ; preds = %122, %119, %111
  br label %126

126:                                              ; preds = %125, %108
  %127 = call i32 (i8*, ...) @printf(i8* getelementptr inbounds ([2 x i8], [2 x i8]* @.str.2, i64 0, i64 0))
  ret i32 0
}

declare dso_local i32 @gets(...) #1

declare dso_local i32 @printf(i8*, ...) #1


!llvm.module.flags = !{!0}
!llvm.ident = !{!1}

!0 = !{i32 1, !"wchar_size", i32 4}
!1 = !{!"clang version 10.0.0-4ubuntu1 "}
